(dp1
S'OriginalConfig'
p2
ccopy_reg
_reconstructor
p3
(cWMCore.Configuration
Configuration
p4
c__builtin__
object
p5
NtRp6
(dp7
S'Site'
p8
g3
(cWMCore.Configuration
ConfigSection
p9
g5
NtRp10
(dp11
S'_internal_documentation'
p12
S''
sS'_internal_settings'
p13
c__builtin__
set
p14
((lp15
S'whitelist'
p16
aS'storageSite'
p17
atRp18
sS'_internal_name'
p19
g8
sS'_internal_docstrings'
p20
(dp21
sS'_internal_children'
p22
g14
((ltRp23
sg17
S'T2_US_Purdue'
p24
sS'_internal_parent_ref'
p25
Nsg16
(lp26
g24
aS'T2_US_MIT'
p27
asbsS'_internal_sections'
p28
(lp29
S'General'
p30
aS'JobType'
p31
aS'Data'
p32
ag8
aS'User'
p33
aS'Debug'
p34
asg30
g3
(g9
g5
NtRp35
(dp36
S'transferLogs'
p37
I00
sg12
S''
sg13
g14
((lp38
g37
aS'transferOutputs'
p39
aS'workArea'
p40
aS'requestName'
p41
atRp42
sg19
g30
sg20
(dp43
sg39
I01
sg22
g14
((ltRp44
sg41
S'Pythia8_nonprompt_D0pt4p0to10p0_Pthat0_TuneCUETP8M1_5020GeV_cfi_evtgen130_py_RAW_HLT_v0'
p45
sg25
Nsg40
S'crab_projects'
p46
sbsS'_internal_webapps'
p47
(lp48
sg33
g3
(g9
g5
NtRp49
(dp50
g12
S''
sg13
g14
((ltRp51
sg19
g33
sg20
(dp52
sg22
g14
((ltRp53
sg25
NsbsS'_internal_components'
p54
(lp55
sg34
g3
(g9
g5
NtRp56
(dp57
S'extraJDL'
p58
(lp59
S'+CMS_ALLOW_OVERFLOW=False'
p60
asg12
S''
sg13
g14
((lp61
g58
atRp62
sg19
g34
sg20
(dp63
sg22
g14
((ltRp64
sg25
Nsbsg32
g3
(g9
g5
NtRp65
(dp66
S'inputDataset'
p67
S'/NonPrompt_D0/chengchi-Pythia8_nonprompt_D0pt4p0to10p0_Pthat0_TuneCUETP8M1_5020GeV_cfi_evtgen130_py_GEN_SIM_PU-ac0e6e1629bab769edf545216655be82/USER'
p68
sS'outputDatasetTag'
p69
g45
sS'publication'
p70
I01
sS'splitting'
p71
S'FileBased'
p72
sS'unitsPerJob'
p73
I2
sg12
S''
sg13
g14
((lp74
g67
ag69
ag70
ag73
aS'inputDBS'
p75
ag71
atRp76
sg19
g32
sg75
S'phys03'
p77
sg20
(dp78
sg22
g14
((ltRp79
sg25
Nsbsg31
g3
(g9
g5
NtRp80
(dp81
g12
S''
sg13
g14
((lp82
S'psetName'
p83
aS'pluginName'
p84
atRp85
sg19
g31
sg20
(dp86
sg84
S'Analysis'
p87
sg22
g14
((ltRp88
sg83
S'step2_DIGI_L1_DIGI2RAW_HLT_PU.py'
p89
sg25
NsbsbsS'voGroup'
p90
S''
sS'Server'
p91
S'cmsweb.cern.ch'
p92
sS'instance'
p93
S'prod'
p94
sS'RequestName'
p95
S'160927_061502:chengchi_crab_Pythia8_nonprompt_D0pt4p0to10p0_Pthat0_TuneCUETP8M1_5020GeV_cfi_evtgen130_py_RAW_HLT_v0'
p96
sS'voRole'
p97
S'NULL'
p98
sS'Port'
p99
S''
s.