(dp1
S'OriginalConfig'
p2
ccopy_reg
_reconstructor
p3
(cWMCore.Configuration
Configuration
p4
c__builtin__
object
p5
NtRp6
(dp7
S'Site'
p8
g3
(cWMCore.Configuration
ConfigSection
p9
g5
NtRp10
(dp11
S'_internal_documentation'
p12
S''
sS'_internal_settings'
p13
c__builtin__
set
p14
((lp15
S'storageSite'
p16
atRp17
sS'_internal_name'
p18
g8
sS'_internal_docstrings'
p19
(dp20
sS'_internal_children'
p21
g14
((ltRp22
sg16
S'T2_US_Purdue'
p23
sS'_internal_parent_ref'
p24
NsbsS'_internal_sections'
p25
(lp26
S'General'
p27
aS'JobType'
p28
aS'Data'
p29
ag8
aS'User'
p30
aS'Debug'
p31
asg27
g3
(g9
g5
NtRp32
(dp33
S'transferLogs'
p34
I00
sg12
S''
sg13
g14
((lp35
g34
aS'transferOutputs'
p36
aS'workArea'
p37
aS'requestName'
p38
atRp39
sg18
g27
sg19
(dp40
sg36
I01
sg21
g14
((ltRp41
sg38
S'Prompt_D0pt2to4_RAW_HLT_withPU_p7v14_t2'
p42
sg24
Nsg37
S'crab_projects'
p43
sbsS'_internal_webapps'
p44
(lp45
sg30
g3
(g9
g5
NtRp46
(dp47
g12
S''
sg13
g14
((ltRp48
sg18
g30
sg19
(dp49
sg21
g14
((ltRp50
sg24
NsbsS'_internal_components'
p51
(lp52
sg31
g3
(g9
g5
NtRp53
(dp54
S'extraJDL'
p55
(lp56
S'+CMS_ALLOW_OVERFLOW=False'
p57
asg12
S''
sg13
g14
((lp58
g55
atRp59
sg18
g31
sg19
(dp60
sg21
g14
((ltRp61
sg24
Nsbsg29
g3
(g9
g5
NtRp62
(dp63
S'inputDataset'
p64
S'/Prompt_D0pt2to4/chengchi-Pythia8_prompt_D0pt2to4_Pthat0_TuneCUETP8M1_5020GeV_cfi_evtgen130_py_GEN_SIM_PU_v1-062d3216df52fb52307cafd986dce510/USER'
p65
sS'outputDatasetTag'
p66
g42
sS'publication'
p67
I01
sS'splitting'
p68
S'FileBased'
p69
sS'unitsPerJob'
p70
I1
sg12
S''
sg13
g14
((lp71
g64
ag66
ag67
ag70
aS'inputDBS'
p72
ag68
atRp73
sg18
g29
sg72
S'phys03'
p74
sg19
(dp75
sg21
g14
((ltRp76
sg24
Nsbsg28
g3
(g9
g5
NtRp77
(dp78
g12
S''
sg13
g14
((lp79
S'psetName'
p80
aS'pluginName'
p81
atRp82
sg18
g28
sg19
(dp83
sg81
S'Analysis'
p84
sg21
g14
((ltRp85
sg80
S'step1_DIGItoHLT_withPU_cfg.py'
p86
sg24
NsbsbsS'voGroup'
p87
S''
sS'Server'
p88
S'cmsweb.cern.ch'
p89
sS'instance'
p90
S'prod'
p91
sS'RequestName'
p92
S'161111_123501:chengchi_crab_Prompt_D0pt2to4_RAW_HLT_withPU_p7v14_t2'
p93
sS'voRole'
p94
S'NULL'
p95
sS'Port'
p96
S''
s.