(dp1
S'OriginalConfig'
p2
ccopy_reg
_reconstructor
p3
(cWMCore.Configuration
Configuration
p4
c__builtin__
object
p5
NtRp6
(dp7
S'Site'
p8
g3
(cWMCore.Configuration
ConfigSection
p9
g5
NtRp10
(dp11
S'_internal_documentation'
p12
S''
sS'_internal_settings'
p13
c__builtin__
set
p14
((lp15
S'whitelist'
p16
aS'storageSite'
p17
atRp18
sS'_internal_name'
p19
g8
sS'_internal_docstrings'
p20
(dp21
sS'_internal_children'
p22
g14
((ltRp23
sg17
S'T2_US_Purdue'
p24
sS'_internal_parent_ref'
p25
Nsg16
(lp26
S'T2_US_MIT'
p27
aS'T2_US_Vanderbilt'
p28
aS'T2_FR_GRIF_LLR'
p29
asbsS'_internal_sections'
p30
(lp31
S'General'
p32
aS'JobType'
p33
aS'Data'
p34
ag8
aS'User'
p35
aS'Debug'
p36
asg32
g3
(g9
g5
NtRp37
(dp38
S'transferLogs'
p39
I00
sg12
S''
sg13
g14
((lp40
g39
aS'transferOutputs'
p41
aS'workArea'
p42
aS'requestName'
p43
atRp44
sg19
g32
sg20
(dp45
sg41
I01
sg22
g14
((ltRp46
sg43
S'Pythia8_prompt_D0pt4p0to10p0_Pthat0_TuneCUETP8M1_5020GeV_cfi_evtgen130_py_GEN_SIM_PU_v1'
p47
sg25
Nsg42
S'crab_projects'
p48
sbsS'_internal_webapps'
p49
(lp50
sg35
g3
(g9
g5
NtRp51
(dp52
g12
S''
sg13
g14
((ltRp53
sg19
g35
sg20
(dp54
sg22
g14
((ltRp55
sg25
NsbsS'_internal_components'
p56
(lp57
sg36
g3
(g9
g5
NtRp58
(dp59
S'extraJDL'
p60
(lp61
S'+CMS_ALLOW_OVERFLOW=False'
p62
asg12
S''
sg13
g14
((lp63
g60
atRp64
sg19
g36
sg20
(dp65
sg22
g14
((ltRp66
sg25
Nsbsg34
g3
(g9
g5
NtRp67
(dp68
S'outputDatasetTag'
p69
g47
sS'totalUnits'
p70
I850000
sS'unitsPerJob'
p71
I25000
sg12
S''
sg13
g14
((lp72
g69
aS'publication'
p73
ag71
aS'splitting'
p74
aS'outLFNDirBase'
p75
aS'outputPrimaryDataset'
p76
ag70
atRp77
sg75
S'/store/user/chengchi/'
p78
sg19
g34
sg74
S'EventBased'
p79
sg20
(dp80
sg22
g14
((ltRp81
sg76
S'Prompt_D0'
p82
sg25
Nsg73
I01
sbsg33
g3
(g9
g5
NtRp83
(dp84
S'maxMemoryMB'
p85
I4000
sg12
S''
sg13
g14
((lp86
S'psetName'
p87
aS'pluginName'
p88
ag85
atRp89
sg19
g33
sg20
(dp90
sg88
S'PrivateMC'
p91
sg22
g14
((ltRp92
sg87
S'Pythia8_prompt_D0pt4p0to10p0_Pthat0_TuneCUETP8M1_5020GeV_cfi_evtgen130_py_GEN_SIM_PU.py'
p93
sg25
NsbsbsS'voGroup'
p94
S''
sS'Server'
p95
S'cmsweb.cern.ch'
p96
sS'instance'
p97
S'prod'
p98
sS'RequestName'
p99
S'160927_061011:chengchi_crab_Pythia8_prompt_D0pt4p0to10p0_Pthat0_TuneCUETP8M1_5020GeV_cfi_evtgen130_py_GEN_SIM_PU_v1'
p100
sS'voRole'
p101
S'NULL'
p102
sS'Port'
p103
S''
s.