(dp1
S'OriginalConfig'
p2
ccopy_reg
_reconstructor
p3
(cWMCore.Configuration
Configuration
p4
c__builtin__
object
p5
NtRp6
(dp7
S'Site'
p8
g3
(cWMCore.Configuration
ConfigSection
p9
g5
NtRp10
(dp11
S'_internal_documentation'
p12
S''
sS'_internal_settings'
p13
c__builtin__
set
p14
((lp15
S'whitelist'
p16
aS'storageSite'
p17
atRp18
sS'_internal_name'
p19
g8
sS'_internal_docstrings'
p20
(dp21
sS'_internal_children'
p22
g14
((ltRp23
sg17
S'T2_US_Purdue'
p24
sS'_internal_parent_ref'
p25
Nsg16
(lp26
S'T2_US_MIT'
p27
aS'T2_US_Vanderbilt'
p28
aS'T2_FR_GRIF_LLR'
p29
asbsS'_internal_sections'
p30
(lp31
S'General'
p32
aS'JobType'
p33
aS'Data'
p34
ag8
aS'User'
p35
aS'Debug'
p36
asg32
g3
(g9
g5
NtRp37
(dp38
S'transferLogs'
p39
I00
sg12
S''
sg13
g14
((lp40
g39
aS'transferOutputs'
p41
aS'workArea'
p42
aS'requestName'
p43
atRp44
sg19
g32
sg20
(dp45
sg41
I01
sg22
g14
((ltRp46
sg43
S'Prompt_D0pt2to4'
p47
sg25
Nsg42
S'crab_projects'
p48
sbsS'_internal_webapps'
p49
(lp50
sg35
g3
(g9
g5
NtRp51
(dp52
g12
S''
sg13
g14
((ltRp53
sg19
g35
sg20
(dp54
sg22
g14
((ltRp55
sg25
NsbsS'_internal_components'
p56
(lp57
sg36
g3
(g9
g5
NtRp58
(dp59
S'extraJDL'
p60
(lp61
S'+CMS_ALLOW_OVERFLOW=False'
p62
asg12
S''
sg13
g14
((lp63
g60
atRp64
sg19
g36
sg20
(dp65
sg22
g14
((ltRp66
sg25
Nsbsg34
g3
(g9
g5
NtRp67
(dp68
S'outputDatasetTag'
p69
S'Pythia8_prompt_D0pt2to4_Pthat0_TuneCUETP8M1_5020GeV_cfi_evtgen130_py_GEN_SIM_PU_v1'
p70
sS'totalUnits'
p71
I9000000
sS'unitsPerJob'
p72
I30000
sg12
S''
sg13
g14
((lp73
g69
aS'publication'
p74
ag72
aS'splitting'
p75
aS'outLFNDirBase'
p76
aS'outputPrimaryDataset'
p77
ag71
atRp78
sg76
S'/store/user/chengchi/'
p79
sg19
g34
sg75
S'EventBased'
p80
sg20
(dp81
sg22
g14
((ltRp82
sg77
g47
sg25
Nsg74
I01
sbsg33
g3
(g9
g5
NtRp83
(dp84
g12
S''
sg13
g14
((lp85
S'psetName'
p86
aS'pluginName'
p87
atRp88
sg19
g33
sg20
(dp89
sg87
S'PrivateMC'
p90
sg22
g14
((ltRp91
sg86
S'PbPb_prompt_D0pt2to4_GenSim_cfg.py'
p92
sg25
NsbsbsS'voGroup'
p93
S''
sS'Server'
p94
S'cmsweb.cern.ch'
p95
sS'instance'
p96
S'prod'
p97
sS'RequestName'
p98
S'161110_154556:chengchi_crab_Prompt_D0pt2to4'
p99
sS'voRole'
p100
S'NULL'
p101
sS'Port'
p102
S''
s.